target datalayout = "e-m:e-p270:32:32-p271:32:32-p272:64:64-i64:64-i128:128-f80:128-n8:16:32:64-S128"
target triple = "x86_64-pc-linux-gnu"

%class.ProtoTreeModel = type { %class.QAbstractItemModel, ptr }
%class.QAbstractItemModel = type { %class.QObject }
%class.QObject = type { ptr, %class.QScopedPointer }
%class.QScopedPointer = type { ptr }

@_ZTV14ProtoTreeModel = external unnamed_addr constant { [51 x ptr] }, align 8

; Function Attrs: mustprogress nounwind uwtable
define void @_ZN14ProtoTreeModelD2Ev(ptr noundef nonnull align 8 dereferenceable(24) %0) unnamed_addr #5 align 2 {
  %2 = alloca ptr, align 8
  store ptr %0, ptr %2, align 8
  %3 = load ptr, ptr %2, align 8
  store ptr getelementptr inbounds ({ [51 x ptr] }, ptr @_ZTV14ProtoTreeModel, i32 0, i32 0, i32 2), ptr %3, align 8
  %4 = getelementptr inbounds %class.ProtoTreeModel, ptr %3, i32 0, i32 1
  %5 = load ptr, ptr %4, align 8
  %6 = icmp eq ptr %5, null
  br i1 %6, label %8, label %7

7:                                                ; preds = %1
  call void @_ZN9ProtoNodeD1Ev(ptr noundef nonnull align 8 dereferenceable(40) %5) #9
  call void @_ZdlPv(ptr noundef %5) #8
  br label %8

8:                                                ; preds = %7, %1
  call void @_ZN18QAbstractItemModelD2Ev(ptr noundef nonnull align 8 dereferenceable(16) %3) #9
  ret void
}