; Function Attrs: mustprogress nounwind uwtable
define void @_ZN14ProtoTreeModelD2Ev(ptr noundef nonnull align 8 dereferenceable(24) %0) unnamed_addr #5 align 2 {
  store ptr getelementptr inbounds ({ [51 x ptr] }, ptr @_ZTV14ProtoTreeModel, i64 0, i32 0, i64 2), ptr %0, align 8
  %2 = getelementptr inbounds i8, ptr %0, i64 16
  %3 = load ptr, ptr %2, align 8
  %4 = icmp eq ptr %3, null
  br i1 %4, label %6, label %5

5:                                                ; preds = %1
  tail call void @_ZN9ProtoNodeD1Ev(ptr noundef nonnull align 8 dereferenceable(40) %3) #12
  tail call void @_ZdlPv(ptr noundef nonnull %3) #11
  br label %6

6:                                                ; preds = %5, %1
  tail call void @_ZN18QAbstractItemModelD2Ev(ptr noundef nonnull align 8 dereferenceable(16) %0) #12
  ret void
}